target datalayout = "e-m:e-p270:32:32-p271:32:32-p272:64:64-i64:64-i128:128-f80:128-n8:16:32:64-S128"
target triple = "x86_64-pc-linux-gnu"

; Function Attrs: nounwind uwtable
define hidden void @ScaleAddRow_C(ptr noundef %0, ptr noundef %1, i32 noundef %2) #0 {
  %4 = alloca ptr, align 8
  %5 = alloca ptr, align 8
  %6 = alloca i32, align 4
  %7 = alloca i32, align 4
  store ptr %0, ptr %4, align 8
  store ptr %1, ptr %5, align 8
  store i32 %2, ptr %6, align 4
  store i32 0, ptr %7, align 4
  br label %8

8:                                                ; preds = %38, %3
  %9 = load i32, ptr %7, align 4
  %10 = load i32, ptr %6, align 4
  %11 = sub nsw i32 %10, 1
  %12 = icmp slt i32 %9, %11
  br i1 %12, label %13, label %41

13:                                               ; preds = %8
  %14 = load ptr, ptr %4, align 8
  %15 = getelementptr inbounds i8, ptr %14, i64 0
  %16 = load i8, ptr %15, align 1
  %17 = zext i8 %16 to i32
  %18 = load ptr, ptr %5, align 8
  %19 = getelementptr inbounds i16, ptr %18, i64 0
  %20 = load i16, ptr %19, align 2
  %21 = zext i16 %20 to i32
  %22 = add nsw i32 %21, %17
  %23 = trunc i32 %22 to i16
  store i16 %23, ptr %19, align 2
  %24 = load ptr, ptr %4, align 8
  %25 = getelementptr inbounds i8, ptr %24, i64 1
  %26 = load i8, ptr %25, align 1
  %27 = zext i8 %26 to i32
  %28 = load ptr, ptr %5, align 8
  %29 = getelementptr inbounds i16, ptr %28, i64 1
  %30 = load i16, ptr %29, align 2
  %31 = zext i16 %30 to i32
  %32 = add nsw i32 %31, %27
  %33 = trunc i32 %32 to i16
  store i16 %33, ptr %29, align 2
  %34 = load ptr, ptr %4, align 8
  %35 = getelementptr inbounds i8, ptr %34, i64 2
  store ptr %35, ptr %4, align 8
  %36 = load ptr, ptr %5, align 8
  %37 = getelementptr inbounds i16, ptr %36, i64 2
  store ptr %37, ptr %5, align 8
  br label %38

38:                                               ; preds = %13
  %39 = load i32, ptr %7, align 4
  %40 = add nsw i32 %39, 2
  store i32 %40, ptr %7, align 4
  br label %8, !llvm.loop !17

41:                                               ; preds = %8
  %42 = load i32, ptr %6, align 4
  %43 = and i32 %42, 1
  %44 = icmp ne i32 %43, 0
  br i1 %44, label %45, label %56

45:                                               ; preds = %41
  %46 = load ptr, ptr %4, align 8
  %47 = getelementptr inbounds i8, ptr %46, i64 0
  %48 = load i8, ptr %47, align 1
  %49 = zext i8 %48 to i32
  %50 = load ptr, ptr %5, align 8
  %51 = getelementptr inbounds i16, ptr %50, i64 0
  %52 = load i16, ptr %51, align 2
  %53 = zext i16 %52 to i32
  %54 = add nsw i32 %53, %49
  %55 = trunc i32 %54 to i16
  store i16 %55, ptr %51, align 2
  br label %56

56:                                               ; preds = %45, %41
  ret void
}